target datalayout = "e-m:e-p270:32:32-p271:32:32-p272:64:64-i64:64-i128:128-f80:128-n8:16:32:64-S128"
target triple = "x86_64-pc-linux-gnu"

%struct.par_shapes_mesh_s = type { ptr, i32, ptr, i32, ptr, ptr }
%struct.Mesh = type { i32, i32, ptr, ptr, ptr, ptr, ptr, ptr, ptr, ptr, ptr, ptr, ptr, ptr, i32, i32, ptr }

@.str.99 = private unnamed_addr constant [37 x i8] c"MESH: Failed to generate mesh: torus\00", align 1

; Function Attrs: nounwind uwtable
define hidden void @par_shapes_free_mesh(ptr noundef %0) #0 {
  %2 = alloca ptr, align 8
  store ptr %0, ptr %2, align 8
  %3 = load ptr, ptr %2, align 8
  %4 = getelementptr inbounds nuw %struct.par_shapes_mesh_s, ptr %3, i32 0, i32 0
  %5 = load ptr, ptr %4, align 8
  call void @free(ptr noundef %5) #16
  %6 = load ptr, ptr %2, align 8
  %7 = getelementptr inbounds nuw %struct.par_shapes_mesh_s, ptr %6, i32 0, i32 2
  %8 = load ptr, ptr %7, align 8
  call void @free(ptr noundef %8) #16
  %9 = load ptr, ptr %2, align 8
  %10 = getelementptr inbounds nuw %struct.par_shapes_mesh_s, ptr %9, i32 0, i32 4
  %11 = load ptr, ptr %10, align 8
  call void @free(ptr noundef %11) #16
  %12 = load ptr, ptr %2, align 8
  %13 = getelementptr inbounds nuw %struct.par_shapes_mesh_s, ptr %12, i32 0, i32 5
  %14 = load ptr, ptr %13, align 8
  call void @free(ptr noundef %14) #16
  %15 = load ptr, ptr %2, align 8
  call void @free(ptr noundef %15) #16
  ret void
}

; Function Attrs: nounwind uwtable
define void @GenMeshTorus(ptr dead_on_unwind noalias writable sret(%struct.Mesh) align 8 %0, float noundef %1, float noundef %2, i32 noundef %3, i32 noundef %4) #0 {
  %6 = alloca float, align 4
  %7 = alloca float, align 4
  %8 = alloca i32, align 4
  %9 = alloca i32, align 4
  %10 = alloca ptr, align 8
  %11 = alloca i32, align 4
  store float %1, ptr %6, align 4
  store float %2, ptr %7, align 4
  store i32 %3, ptr %8, align 4
  store i32 %4, ptr %9, align 4
  call void @llvm.memset.p0.i64(ptr align 8 %0, i8 0, i64 120, i1 false)
  %12 = load i32, ptr %9, align 4
  %13 = icmp sge i32 %12, 3
  br i1 %13, label %14, label %264

14:                                               ; preds = %5
  %15 = load i32, ptr %8, align 4
  %16 = icmp sge i32 %15, 3
  br i1 %16, label %17, label %264

17:                                               ; preds = %14
  %18 = load float, ptr %6, align 4
  %19 = fcmp ogt float %18, 1.000000e+00
  br i1 %19, label %20, label %21

20:                                               ; preds = %17
  store float 1.000000e+00, ptr %6, align 4
  br label %26

21:                                               ; preds = %17
  %22 = load float, ptr %6, align 4
  %23 = fcmp olt float %22, 0x3FB99999A0000000
  br i1 %23, label %24, label %25

24:                                               ; preds = %21
  store float 0x3FB99999A0000000, ptr %6, align 4
  br label %25

25:                                               ; preds = %24, %21
  br label %26

26:                                               ; preds = %25, %20
  call void @llvm.lifetime.start.p0(i64 8, ptr %10) #16
  %27 = load i32, ptr %8, align 4
  %28 = load i32, ptr %9, align 4
  %29 = load float, ptr %6, align 4
  %30 = call ptr @par_shapes_create_torus(i32 noundef %27, i32 noundef %28, float noundef %29)
  store ptr %30, ptr %10, align 8
  %31 = load ptr, ptr %10, align 8
  %32 = load float, ptr %7, align 4
  %33 = fdiv float %32, 2.000000e+00
  %34 = load float, ptr %7, align 4
  %35 = fdiv float %34, 2.000000e+00
  %36 = load float, ptr %7, align 4
  %37 = fdiv float %36, 2.000000e+00
  call void @par_shapes_scale(ptr noundef %31, float noundef %33, float noundef %35, float noundef %37)
  %38 = load ptr, ptr %10, align 8
  %39 = getelementptr inbounds nuw %struct.par_shapes_mesh_s, ptr %38, i32 0, i32 3
  %40 = load i32, ptr %39, align 8
  %41 = mul nsw i32 %40, 3
  %42 = mul nsw i32 %41, 3
  %43 = sext i32 %42 to i64
  %44 = mul i64 %43, 4
  %45 = call noalias ptr @malloc(i64 noundef %44) #20
  %46 = getelementptr inbounds nuw %struct.Mesh, ptr %0, i32 0, i32 2
  store ptr %45, ptr %46, align 8
  %47 = load ptr, ptr %10, align 8
  %48 = getelementptr inbounds nuw %struct.par_shapes_mesh_s, ptr %47, i32 0, i32 3
  %49 = load i32, ptr %48, align 8
  %50 = mul nsw i32 %49, 3
  %51 = mul nsw i32 %50, 2
  %52 = sext i32 %51 to i64
  %53 = mul i64 %52, 4
  %54 = call noalias ptr @malloc(i64 noundef %53) #20
  %55 = getelementptr inbounds nuw %struct.Mesh, ptr %0, i32 0, i32 3
  store ptr %54, ptr %55, align 8
  %56 = load ptr, ptr %10, align 8
  %57 = getelementptr inbounds nuw %struct.par_shapes_mesh_s, ptr %56, i32 0, i32 3
  %58 = load i32, ptr %57, align 8
  %59 = mul nsw i32 %58, 3
  %60 = mul nsw i32 %59, 3
  %61 = sext i32 %60 to i64
  %62 = mul i64 %61, 4
  %63 = call noalias ptr @malloc(i64 noundef %62) #20
  %64 = getelementptr inbounds nuw %struct.Mesh, ptr %0, i32 0, i32 5
  store ptr %63, ptr %64, align 8
  %65 = load ptr, ptr %10, align 8
  %66 = getelementptr inbounds nuw %struct.par_shapes_mesh_s, ptr %65, i32 0, i32 3
  %67 = load i32, ptr %66, align 8
  %68 = mul nsw i32 %67, 3
  %69 = getelementptr inbounds nuw %struct.Mesh, ptr %0, i32 0, i32 0
  store i32 %68, ptr %69, align 8
  %70 = load ptr, ptr %10, align 8
  %71 = getelementptr inbounds nuw %struct.par_shapes_mesh_s, ptr %70, i32 0, i32 3
  %72 = load i32, ptr %71, align 8
  %73 = getelementptr inbounds nuw %struct.Mesh, ptr %0, i32 0, i32 1
  store i32 %72, ptr %73, align 4
  call void @llvm.lifetime.start.p0(i64 4, ptr %11) #16
  store i32 0, ptr %11, align 4
  br label %74

74:                                               ; preds = %259, %26
  %75 = load i32, ptr %11, align 4
  %76 = getelementptr inbounds nuw %struct.Mesh, ptr %0, i32 0, i32 0
  %77 = load i32, ptr %76, align 8
  %78 = icmp slt i32 %75, %77
  br i1 %78, label %80, label %79

79:                                               ; preds = %74
  call void @llvm.lifetime.end.p0(i64 4, ptr %11) #16
  br label %262

80:                                               ; preds = %74
  %81 = load ptr, ptr %10, align 8
  %82 = getelementptr inbounds nuw %struct.par_shapes_mesh_s, ptr %81, i32 0, i32 0
  %83 = load ptr, ptr %82, align 8
  %84 = load ptr, ptr %10, align 8
  %85 = getelementptr inbounds nuw %struct.par_shapes_mesh_s, ptr %84, i32 0, i32 2
  %86 = load ptr, ptr %85, align 8
  %87 = load i32, ptr %11, align 4
  %88 = sext i32 %87 to i64
  %89 = getelementptr inbounds i16, ptr %86, i64 %88
  %90 = load i16, ptr %89, align 2
  %91 = zext i16 %90 to i32
  %92 = mul nsw i32 %91, 3
  %93 = sext i32 %92 to i64
  %94 = getelementptr inbounds float, ptr %83, i64 %93
  %95 = load float, ptr %94, align 4
  %96 = getelementptr inbounds nuw %struct.Mesh, ptr %0, i32 0, i32 2
  %97 = load ptr, ptr %96, align 8
  %98 = load i32, ptr %11, align 4
  %99 = mul nsw i32 %98, 3
  %100 = sext i32 %99 to i64
  %101 = getelementptr inbounds float, ptr %97, i64 %100
  store float %95, ptr %101, align 4
  %102 = load ptr, ptr %10, align 8
  %103 = getelementptr inbounds nuw %struct.par_shapes_mesh_s, ptr %102, i32 0, i32 0
  %104 = load ptr, ptr %103, align 8
  %105 = load ptr, ptr %10, align 8
  %106 = getelementptr inbounds nuw %struct.par_shapes_mesh_s, ptr %105, i32 0, i32 2
  %107 = load ptr, ptr %106, align 8
  %108 = load i32, ptr %11, align 4
  %109 = sext i32 %108 to i64
  %110 = getelementptr inbounds i16, ptr %107, i64 %109
  %111 = load i16, ptr %110, align 2
  %112 = zext i16 %111 to i32
  %113 = mul nsw i32 %112, 3
  %114 = add nsw i32 %113, 1
  %115 = sext i32 %114 to i64
  %116 = getelementptr inbounds float, ptr %104, i64 %115
  %117 = load float, ptr %116, align 4
  %118 = getelementptr inbounds nuw %struct.Mesh, ptr %0, i32 0, i32 2
  %119 = load ptr, ptr %118, align 8
  %120 = load i32, ptr %11, align 4
  %121 = mul nsw i32 %120, 3
  %122 = add nsw i32 %121, 1
  %123 = sext i32 %122 to i64
  %124 = getelementptr inbounds float, ptr %119, i64 %123
  store float %117, ptr %124, align 4
  %125 = load ptr, ptr %10, align 8
  %126 = getelementptr inbounds nuw %struct.par_shapes_mesh_s, ptr %125, i32 0, i32 0
  %127 = load ptr, ptr %126, align 8
  %128 = load ptr, ptr %10, align 8
  %129 = getelementptr inbounds nuw %struct.par_shapes_mesh_s, ptr %128, i32 0, i32 2
  %130 = load ptr, ptr %129, align 8
  %131 = load i32, ptr %11, align 4
  %132 = sext i32 %131 to i64
  %133 = getelementptr inbounds i16, ptr %130, i64 %132
  %134 = load i16, ptr %133, align 2
  %135 = zext i16 %134 to i32
  %136 = mul nsw i32 %135, 3
  %137 = add nsw i32 %136, 2
  %138 = sext i32 %137 to i64
  %139 = getelementptr inbounds float, ptr %127, i64 %138
  %140 = load float, ptr %139, align 4
  %141 = getelementptr inbounds nuw %struct.Mesh, ptr %0, i32 0, i32 2
  %142 = load ptr, ptr %141, align 8
  %143 = load i32, ptr %11, align 4
  %144 = mul nsw i32 %143, 3
  %145 = add nsw i32 %144, 2
  %146 = sext i32 %145 to i64
  %147 = getelementptr inbounds float, ptr %142, i64 %146
  store float %140, ptr %147, align 4
  %148 = load ptr, ptr %10, align 8
  %149 = getelementptr inbounds nuw %struct.par_shapes_mesh_s, ptr %148, i32 0, i32 4
  %150 = load ptr, ptr %149, align 8
  %151 = load ptr, ptr %10, align 8
  %152 = getelementptr inbounds nuw %struct.par_shapes_mesh_s, ptr %151, i32 0, i32 2
  %153 = load ptr, ptr %152, align 8
  %154 = load i32, ptr %11, align 4
  %155 = sext i32 %154 to i64
  %156 = getelementptr inbounds i16, ptr %153, i64 %155
  %157 = load i16, ptr %156, align 2
  %158 = zext i16 %157 to i32
  %159 = mul nsw i32 %158, 3
  %160 = sext i32 %159 to i64
  %161 = getelementptr inbounds float, ptr %150, i64 %160
  %162 = load float, ptr %161, align 4
  %163 = getelementptr inbounds nuw %struct.Mesh, ptr %0, i32 0, i32 5
  %164 = load ptr, ptr %163, align 8
  %165 = load i32, ptr %11, align 4
  %166 = mul nsw i32 %165, 3
  %167 = sext i32 %166 to i64
  %168 = getelementptr inbounds float, ptr %164, i64 %167
  store float %162, ptr %168, align 4
  %169 = load ptr, ptr %10, align 8
  %170 = getelementptr inbounds nuw %struct.par_shapes_mesh_s, ptr %169, i32 0, i32 4
  %171 = load ptr, ptr %170, align 8
  %172 = load ptr, ptr %10, align 8
  %173 = getelementptr inbounds nuw %struct.par_shapes_mesh_s, ptr %172, i32 0, i32 2
  %174 = load ptr, ptr %173, align 8
  %175 = load i32, ptr %11, align 4
  %176 = sext i32 %175 to i64
  %177 = getelementptr inbounds i16, ptr %174, i64 %176
  %178 = load i16, ptr %177, align 2
  %179 = zext i16 %178 to i32
  %180 = mul nsw i32 %179, 3
  %181 = add nsw i32 %180, 1
  %182 = sext i32 %181 to i64
  %183 = getelementptr inbounds float, ptr %171, i64 %182
  %184 = load float, ptr %183, align 4
  %185 = getelementptr inbounds nuw %struct.Mesh, ptr %0, i32 0, i32 5
  %186 = load ptr, ptr %185, align 8
  %187 = load i32, ptr %11, align 4
  %188 = mul nsw i32 %187, 3
  %189 = add nsw i32 %188, 1
  %190 = sext i32 %189 to i64
  %191 = getelementptr inbounds float, ptr %186, i64 %190
  store float %184, ptr %191, align 4
  %192 = load ptr, ptr %10, align 8
  %193 = getelementptr inbounds nuw %struct.par_shapes_mesh_s, ptr %192, i32 0, i32 4
  %194 = load ptr, ptr %193, align 8
  %195 = load ptr, ptr %10, align 8
  %196 = getelementptr inbounds nuw %struct.par_shapes_mesh_s, ptr %195, i32 0, i32 2
  %197 = load ptr, ptr %196, align 8
  %198 = load i32, ptr %11, align 4
  %199 = sext i32 %198 to i64
  %200 = getelementptr inbounds i16, ptr %197, i64 %199
  %201 = load i16, ptr %200, align 2
  %202 = zext i16 %201 to i32
  %203 = mul nsw i32 %202, 3
  %204 = add nsw i32 %203, 2
  %205 = sext i32 %204 to i64
  %206 = getelementptr inbounds float, ptr %194, i64 %205
  %207 = load float, ptr %206, align 4
  %208 = getelementptr inbounds nuw %struct.Mesh, ptr %0, i32 0, i32 5
  %209 = load ptr, ptr %208, align 8
  %210 = load i32, ptr %11, align 4
  %211 = mul nsw i32 %210, 3
  %212 = add nsw i32 %211, 2
  %213 = sext i32 %212 to i64
  %214 = getelementptr inbounds float, ptr %209, i64 %213
  store float %207, ptr %214, align 4
  %215 = load ptr, ptr %10, align 8
  %216 = getelementptr inbounds nuw %struct.par_shapes_mesh_s, ptr %215, i32 0, i32 5
  %217 = load ptr, ptr %216, align 8
  %218 = load ptr, ptr %10, align 8
  %219 = getelementptr inbounds nuw %struct.par_shapes_mesh_s, ptr %218, i32 0, i32 2
  %220 = load ptr, ptr %219, align 8
  %221 = load i32, ptr %11, align 4
  %222 = sext i32 %221 to i64
  %223 = getelementptr inbounds i16, ptr %220, i64 %222
  %224 = load i16, ptr %223, align 2
  %225 = zext i16 %224 to i32
  %226 = mul nsw i32 %225, 2
  %227 = sext i32 %226 to i64
  %228 = getelementptr inbounds float, ptr %217, i64 %227
  %229 = load float, ptr %228, align 4
  %230 = getelementptr inbounds nuw %struct.Mesh, ptr %0, i32 0, i32 3
  %231 = load ptr, ptr %230, align 8
  %232 = load i32, ptr %11, align 4
  %233 = mul nsw i32 %232, 2
  %234 = sext i32 %233 to i64
  %235 = getelementptr inbounds float, ptr %231, i64 %234
  store float %229, ptr %235, align 4
  %236 = load ptr, ptr %10, align 8
  %237 = getelementptr inbounds nuw %struct.par_shapes_mesh_s, ptr %236, i32 0, i32 5
  %238 = load ptr, ptr %237, align 8
  %239 = load ptr, ptr %10, align 8
  %240 = getelementptr inbounds nuw %struct.par_shapes_mesh_s, ptr %239, i32 0, i32 2
  %241 = load ptr, ptr %240, align 8
  %242 = load i32, ptr %11, align 4
  %243 = sext i32 %242 to i64
  %244 = getelementptr inbounds i16, ptr %241, i64 %243
  %245 = load i16, ptr %244, align 2
  %246 = zext i16 %245 to i32
  %247 = mul nsw i32 %246, 2
  %248 = add nsw i32 %247, 1
  %249 = sext i32 %248 to i64
  %250 = getelementptr inbounds float, ptr %238, i64 %249
  %251 = load float, ptr %250, align 4
  %252 = getelementptr inbounds nuw %struct.Mesh, ptr %0, i32 0, i32 3
  %253 = load ptr, ptr %252, align 8
  %254 = load i32, ptr %11, align 4
  %255 = mul nsw i32 %254, 2
  %256 = add nsw i32 %255, 1
  %257 = sext i32 %256 to i64
  %258 = getelementptr inbounds float, ptr %253, i64 %257
  store float %251, ptr %258, align 4
  br label %259

259:                                              ; preds = %80
  %260 = load i32, ptr %11, align 4
  %261 = add nsw i32 %260, 1
  store i32 %261, ptr %11, align 4
  br label %74

262:                                              ; preds = %79
  %263 = load ptr, ptr %10, align 8
  call void @par_shapes_free_mesh(ptr noundef %263)
  call void @UploadMesh(ptr noundef %0, i1 noundef zeroext false)
  call void @llvm.lifetime.end.p0(i64 8, ptr %10) #16
  br label %265

264:                                              ; preds = %14, %5
  call void (i32, ptr, ...) @TraceLog(i32 noundef 4, ptr noundef @.str.99)
  br label %265

265:                                              ; preds = %264, %262
  ret void
}