; Function Attrs: nounwind uwtable
define void @GenMeshTorus(ptr dead_on_unwind noalias writable sret(%struct.Mesh) align 8 captures(none) initializes((0, 120)) %0, float noundef %1, float noundef %2, i32 noundef %3, i32 noundef %4) local_unnamed_addr #0 {
  tail call void @llvm.memset.p0.i64(ptr noundef nonnull align 8 dereferenceable(120) %0, i8 0, i64 120, i1 false)
  %6 = icmp sgt i32 %4, 2
  %7 = icmp sgt i32 %3, 2
  %or.cond = and i1 %7, %6
  br i1 %or.cond, label %8, label %86

8:                                                ; preds = %5
  %9 = fcmp ogt float %1, 1.000000e+00
  br i1 %9, label %13, label %10

10:                                               ; preds = %8
  %11 = fcmp olt float %1, 0x3FB99999A0000000
  br i1 %11, label %12, label %13

12:                                               ; preds = %10
  br label %13

13:                                               ; preds = %8, %10, %12
  %.051 = phi float [ 0x3FB99999A0000000, %12 ], [ %1, %10 ], [ 1.000000e+00, %8 ]
  %14 = tail call ptr @par_shapes_create_torus(i32 noundef %3, i32 noundef %4, float noundef %.051)
  %15 = fmul float %2, 5.000000e-01
  tail call void @par_shapes_scale(ptr noundef %14, float noundef %15, float noundef %15, float noundef %15)
  %16 = getelementptr inbounds nuw i8, ptr %14, i64 24
  %17 = load i32, ptr %16, align 8
  %18 = mul nsw i32 %17, 9
  %19 = sext i32 %18 to i64
  %20 = shl nsw i64 %19, 2
  %21 = tail call noalias ptr @malloc(i64 noundef %20) #59
  %22 = getelementptr inbounds nuw i8, ptr %0, i64 8
  store ptr %21, ptr %22, align 8
  %23 = mul nsw i32 %17, 6
  %24 = sext i32 %23 to i64
  %25 = shl nsw i64 %24, 2
  %26 = tail call noalias ptr @malloc(i64 noundef %25) #59
  %27 = getelementptr inbounds nuw i8, ptr %0, i64 16
  store ptr %26, ptr %27, align 8
  %28 = tail call noalias ptr @malloc(i64 noundef %20) #59
  %29 = getelementptr inbounds nuw i8, ptr %0, i64 32
  store ptr %28, ptr %29, align 8
  %30 = mul i32 %17, 3
  store i32 %30, ptr %0, align 8
  %31 = getelementptr inbounds nuw i8, ptr %0, i64 4
  store i32 %17, ptr %31, align 4
  %32 = icmp sgt i32 %17, 0
  %.pre = load ptr, ptr %14, align 8
  %33 = getelementptr inbounds nuw i8, ptr %14, i64 16
  %34 = load ptr, ptr %33, align 8
  br i1 %32, label %.lr.ph, label %.._crit_edge_crit_edge

.._crit_edge_crit_edge:                           ; preds = %13
  %.phi.trans.insert70 = getelementptr inbounds nuw i8, ptr %14, i64 32
  %.pre71 = load ptr, ptr %.phi.trans.insert70, align 8
  %.phi.trans.insert72 = getelementptr inbounds nuw i8, ptr %14, i64 40
  %.pre73 = load ptr, ptr %.phi.trans.insert72, align 8
  br label %._crit_edge

.lr.ph:                                           ; preds = %13
  %invariant.gep = getelementptr inbounds nuw i8, ptr %.pre, i64 4
  %invariant.gep62 = getelementptr inbounds nuw i8, ptr %.pre, i64 8
  %35 = getelementptr inbounds nuw i8, ptr %14, i64 32
  %36 = load ptr, ptr %35, align 8
  %invariant.gep64 = getelementptr inbounds nuw i8, ptr %36, i64 4
  %invariant.gep66 = getelementptr inbounds nuw i8, ptr %36, i64 8
  %37 = getelementptr inbounds nuw i8, ptr %14, i64 40
  %38 = load ptr, ptr %37, align 8
  %smax = tail call i32 @llvm.smax.i32(i32 %30, i32 1)
  %wide.trip.count = zext nneg i32 %smax to i64
  br label %41

._crit_edge:                                      ; preds = %41, %.._crit_edge_crit_edge
  %39 = phi ptr [ %.pre73, %.._crit_edge_crit_edge ], [ %38, %41 ]
  %40 = phi ptr [ %.pre71, %.._crit_edge_crit_edge ], [ %36, %41 ]
  tail call void @free(ptr noundef %.pre) #57
  tail call void @free(ptr noundef %34) #57
  tail call void @free(ptr noundef %40) #57
  tail call void @free(ptr noundef %39) #57
  tail call void @free(ptr noundef nonnull %14) #57
  tail call void @UploadMesh(ptr noundef nonnull %0, i1 noundef zeroext false)
  br label %87

41:                                               ; preds = %.lr.ph, %41
  %indvars.iv = phi i64 [ 0, %.lr.ph ], [ %indvars.iv.next, %41 ]
  %42 = getelementptr inbounds nuw i16, ptr %34, i64 %indvars.iv
  %43 = load i16, ptr %42, align 2
  %44 = zext i16 %43 to i64
  %.idx = mul nuw nsw i64 %44, 12
  %45 = getelementptr inbounds nuw i8, ptr %.pre, i64 %.idx
  %46 = load float, ptr %45, align 4
  %47 = mul nuw nsw i64 %indvars.iv, 3
  %48 = getelementptr inbounds nuw float, ptr %21, i64 %47
  store float %46, ptr %48, align 4
  %49 = load i16, ptr %42, align 2
  %50 = zext i16 %49 to i64
  %.idx55 = mul nuw nsw i64 %50, 12
  %gep = getelementptr inbounds nuw i8, ptr %invariant.gep, i64 %.idx55
  %51 = load float, ptr %gep, align 4
  %52 = add nuw nsw i64 %47, 1
  %53 = getelementptr inbounds nuw float, ptr %21, i64 %52
  store float %51, ptr %53, align 4
  %54 = load i16, ptr %42, align 2
  %55 = zext i16 %54 to i64
  %.idx56 = mul nuw nsw i64 %55, 12
  %gep63 = getelementptr inbounds nuw i8, ptr %invariant.gep62, i64 %.idx56
  %56 = load float, ptr %gep63, align 4
  %57 = add nuw nsw i64 %47, 2
  %58 = getelementptr inbounds nuw float, ptr %21, i64 %57
  store float %56, ptr %58, align 4
  %59 = load i16, ptr %42, align 2
  %60 = zext i16 %59 to i64
  %.idx57 = mul nuw nsw i64 %60, 12
  %61 = getelementptr inbounds nuw i8, ptr %36, i64 %.idx57
  %62 = load float, ptr %61, align 4
  %63 = getelementptr inbounds nuw float, ptr %28, i64 %47
  store float %62, ptr %63, align 4
  %64 = load i16, ptr %42, align 2
  %65 = zext i16 %64 to i64
  %.idx58 = mul nuw nsw i64 %65, 12
  %gep65 = getelementptr inbounds nuw i8, ptr %invariant.gep64, i64 %.idx58
  %66 = load float, ptr %gep65, align 4
  %67 = getelementptr inbounds nuw float, ptr %28, i64 %52
  store float %66, ptr %67, align 4
  %68 = load i16, ptr %42, align 2
  %69 = zext i16 %68 to i64
  %.idx59 = mul nuw nsw i64 %69, 12
  %gep67 = getelementptr inbounds nuw i8, ptr %invariant.gep66, i64 %.idx59
  %70 = load float, ptr %gep67, align 4
  %71 = getelementptr inbounds nuw float, ptr %28, i64 %57
  store float %70, ptr %71, align 4
  %72 = load i16, ptr %42, align 2
  %73 = zext i16 %72 to i64
  %.idx60 = shl nuw nsw i64 %73, 3
  %74 = getelementptr inbounds nuw i8, ptr %38, i64 %.idx60
  %75 = load float, ptr %74, align 4
  %76 = shl nuw nsw i64 %indvars.iv, 1
  %77 = getelementptr inbounds nuw float, ptr %26, i64 %76
  store float %75, ptr %77, align 4
  %78 = load i16, ptr %42, align 2
  %79 = zext i16 %78 to i64
  %80 = shl nuw nsw i64 %79, 1
  %81 = or disjoint i64 %80, 1
  %82 = getelementptr inbounds nuw float, ptr %38, i64 %81
  %83 = load float, ptr %82, align 4
  %84 = or disjoint i64 %76, 1
  %85 = getelementptr inbounds nuw float, ptr %26, i64 %84
  store float %83, ptr %85, align 4
  %indvars.iv.next = add nuw nsw i64 %indvars.iv, 1
  %exitcond.not = icmp eq i64 %indvars.iv.next, %wide.trip.count
  br i1 %exitcond.not, label %._crit_edge, label %41

86:                                               ; preds = %5
  tail call void (i32, ptr, ...) @TraceLog(i32 noundef 4, ptr noundef nonnull @.str.99) #57
  br label %87

87:                                               ; preds = %86, %._crit_edge
  ret void
}